target datalayout = "e-m:e-p270:32:32-p271:32:32-p272:64:64-i64:64-i128:128-f80:128-n8:16:32:64-S128"
target triple = "x86_64-pc-linux-gnu"

%class.svector = type { %class.vector.0 }
%class.vector.0 = type { ptr }
%class.ptr_vector = type { %class.vector }
%class.vector = type { ptr }
%"class.smt::theory" = type <{ ptr, i32, [4 x i8], ptr, ptr, %class.ptr_vector, %class.svector, i32, i8, [3 x i8] }>

; Function Attrs: mustprogress uwtable
define hidden void @_ZN3smt10theory_str17attach_new_th_varEPNS_5enodeE(ptr noundef nonnull align 8 dereferenceable(1800) %0, ptr noundef %1) unnamed_addr #6 align 2 {
  %3 = alloca ptr, align 8
  %4 = alloca ptr, align 8
  %5 = alloca i32, align 4
  store ptr %0, ptr %3, align 8, !tbaa !28
  store ptr %1, ptr %4, align 8, !tbaa !798
  %6 = load ptr, ptr %3, align 8
  call void @llvm.lifetime.start.p0(i64 4, ptr %5) #3
  %7 = load ptr, ptr %4, align 8, !tbaa !798
  %8 = load ptr, ptr %6, align 8, !tbaa !36
  %9 = getelementptr inbounds ptr, ptr %8, i64 0
  %10 = load ptr, ptr %9, align 8
  %11 = call noundef i32 %10(ptr noundef nonnull align 8 dereferenceable(1800) %6, ptr noundef %7)
  store i32 %11, ptr %5, align 4, !tbaa !8
  %12 = getelementptr inbounds nuw %"class.smt::theory", ptr %6, i32 0, i32 3
  %13 = load ptr, ptr %12, align 8, !tbaa !334
  %14 = load ptr, ptr %4, align 8, !tbaa !798
  %15 = load i32, ptr %5, align 4, !tbaa !8
  call void @_ZN3smt7context13attach_th_varEPNS_5enodeEPNS_6theoryEi(ptr noundef nonnull align 8 dereferenceable(10544) %13, ptr noundef %14, ptr noundef %6, i32 noundef %15)
  call void @llvm.lifetime.end.p0(i64 4, ptr %5) #3
  ret void
}