; Function Attrs: mustprogress uwtable
define hidden void @_ZN3smt10theory_str17attach_new_th_varEPNS_5enodeE(ptr noundef nonnull align 8 dereferenceable(1800) %0, ptr noundef %1) unnamed_addr #4 align 2 {
  %3 = load ptr, ptr %0, align 8, !tbaa !3
  %4 = load ptr, ptr %3, align 8
  %5 = tail call noundef i32 %4(ptr noundef nonnull align 8 dereferenceable(1800) %0, ptr noundef %1)
  %6 = getelementptr inbounds nuw i8, ptr %0, i64 16
  %7 = load ptr, ptr %6, align 8, !tbaa !386
  tail call void @_ZN3smt7context13attach_th_varEPNS_5enodeEPNS_6theoryEi(ptr noundef nonnull align 8 dereferenceable(10544) %7, ptr noundef %1, ptr noundef nonnull %0, i32 noundef %5)
  ret void
}